target datalayout = "e-m:e-p270:32:32-p271:32:32-p272:64:64-i64:64-i128:128-f80:128-n8:16:32:64-S128"
target triple = "x86_64-pc-linux-gnu"

%struct._priv_exr_context_t = type { i8, i8, i8, i8, i8, i8, i8, i8, %struct.exr_attr_string_t, %struct.exr_attr_string_t, ptr, ptr, ptr, ptr, ptr, ptr, ptr, ptr, i32, i32, i32, i32, i32, float, ptr, ptr, ptr, i64, ptr, ptr, i64, i32, i32, i32, i32, %struct._priv_exr_part_t, ptr, ptr, %struct.exr_attribute_list, %union.pthread_mutex_t, i8, i8, [2 x i8], i32 }
%struct.exr_attr_string_t = type { i32, i32, ptr }
%struct._priv_exr_part_t = type { i32, i32, %struct.exr_attribute_list, ptr, ptr, ptr, ptr, ptr, ptr, ptr, ptr, ptr, ptr, ptr, ptr, ptr, ptr, %struct.exr_attr_box2i_t, %struct.exr_attr_box2i_t, i32, i32, i32, float, i32, i32, ptr, ptr, ptr, ptr, i64, i16, i16, i32, i64, i64 }
%struct.exr_attr_box2i_t = type { %struct.exr_attr_v2i_t, %struct.exr_attr_v2i_t }
%struct.exr_attr_v2i_t = type { i32, i32 }
%struct.exr_attribute_list = type { i32, i32, ptr, ptr }
%union.pthread_mutex_t = type { %struct.__pthread_mutex_s }
%struct.__pthread_mutex_s = type { i32, i32, i32, i32, i32, i16, i16, %struct.__pthread_internal_list }
%struct.__pthread_internal_list = type { ptr, ptr }

; Function Attrs: nounwind uwtable
define i32 @exr_compress_buffer(ptr noundef %0, i32 noundef %1, ptr noundef %2, i64 noundef %3, ptr noundef %4, i64 noundef %5, ptr noundef %6) #0 {
  %8 = alloca i32, align 4
  %9 = alloca ptr, align 8
  %10 = alloca i32, align 4
  %11 = alloca ptr, align 8
  %12 = alloca i64, align 8
  %13 = alloca ptr, align 8
  %14 = alloca i64, align 8
  %15 = alloca ptr, align 8
  %16 = alloca ptr, align 8
  %17 = alloca i64, align 8
  %18 = alloca i32, align 4
  store ptr %0, ptr %9, align 8, !tbaa !7
  store i32 %1, ptr %10, align 4, !tbaa !10
  store ptr %2, ptr %11, align 8, !tbaa !12
  store i64 %3, ptr %12, align 8, !tbaa !3
  store ptr %4, ptr %13, align 8, !tbaa !12
  store i64 %5, ptr %14, align 8, !tbaa !3
  store ptr %6, ptr %15, align 8, !tbaa !13
  call void @llvm.lifetime.start.p0(i64 8, ptr %16) #4
  %19 = load ptr, ptr %9, align 8, !tbaa !7
  %20 = icmp ne ptr %19, null
  br i1 %20, label %21, label %25

21:                                               ; preds = %7
  %22 = load ptr, ptr %9, align 8, !tbaa !7
  %23 = getelementptr inbounds nuw %struct._priv_exr_context_t, ptr %22, i32 0, i32 16
  %24 = load ptr, ptr %23, align 8, !tbaa !15
  br label %26

25:                                               ; preds = %7
  br label %26

26:                                               ; preds = %25, %21
  %27 = phi ptr [ %24, %21 ], [ @internal_exr_alloc, %25 ]
  %28 = load ptr, ptr %9, align 8, !tbaa !7
  %29 = icmp ne ptr %28, null
  br i1 %29, label %30, label %34

30:                                               ; preds = %26
  %31 = load ptr, ptr %9, align 8, !tbaa !7
  %32 = getelementptr inbounds nuw %struct._priv_exr_context_t, ptr %31, i32 0, i32 17
  %33 = load ptr, ptr %32, align 8, !tbaa !29
  br label %35

34:                                               ; preds = %26
  br label %35

35:                                               ; preds = %34, %30
  %36 = phi ptr [ %33, %30 ], [ @internal_exr_free, %34 ]
  call void @libdeflate_set_memory_allocator(ptr noundef %27, ptr noundef %36)
  %37 = load i32, ptr %10, align 4, !tbaa !10
  %38 = icmp slt i32 %37, 0
  br i1 %38, label %39, label %44

39:                                               ; preds = %35
  call void @exr_get_default_zip_compression_level(ptr noundef %10)
  %40 = load i32, ptr %10, align 4, !tbaa !10
  %41 = icmp slt i32 %40, 0
  br i1 %41, label %42, label %43

42:                                               ; preds = %39
  store i32 4, ptr %10, align 4, !tbaa !10
  br label %43

43:                                               ; preds = %42, %39
  br label %44

44:                                               ; preds = %43, %35
  %45 = load i32, ptr %10, align 4, !tbaa !10
  %46 = call ptr @libdeflate_alloc_compressor(i32 noundef %45)
  store ptr %46, ptr %16, align 8, !tbaa !30
  %47 = load ptr, ptr %16, align 8, !tbaa !30
  %48 = icmp ne ptr %47, null
  br i1 %48, label %49, label %68

49:                                               ; preds = %44
  call void @llvm.lifetime.start.p0(i64 8, ptr %17) #4
  %50 = load ptr, ptr %16, align 8, !tbaa !30
  %51 = load ptr, ptr %11, align 8, !tbaa !12
  %52 = load i64, ptr %12, align 8, !tbaa !3
  %53 = load ptr, ptr %13, align 8, !tbaa !12
  %54 = load i64, ptr %14, align 8, !tbaa !3
  %55 = call i64 @libdeflate_zlib_compress(ptr noundef %50, ptr noundef %51, i64 noundef %52, ptr noundef %53, i64 noundef %54)
  store i64 %55, ptr %17, align 8, !tbaa !3
  %56 = load ptr, ptr %16, align 8, !tbaa !30
  call void @libdeflate_free_compressor(ptr noundef %56)
  %57 = load i64, ptr %17, align 8, !tbaa !3
  %58 = icmp ne i64 %57, 0
  br i1 %58, label %59, label %66

59:                                               ; preds = %49
  %60 = load ptr, ptr %15, align 8, !tbaa !13
  %61 = icmp ne ptr %60, null
  br i1 %61, label %62, label %65

62:                                               ; preds = %59
  %63 = load i64, ptr %17, align 8, !tbaa !3
  %64 = load ptr, ptr %15, align 8, !tbaa !13
  store i64 %63, ptr %64, align 8, !tbaa !3
  br label %65

65:                                               ; preds = %62, %59
  store i32 0, ptr %8, align 4
  store i32 1, ptr %18, align 4
  br label %67

66:                                               ; preds = %49
  store i32 1, ptr %8, align 4
  store i32 1, ptr %18, align 4
  br label %67

67:                                               ; preds = %66, %65
  call void @llvm.lifetime.end.p0(i64 8, ptr %17) #4
  br label %69

68:                                               ; preds = %44
  store i32 1, ptr %8, align 4
  store i32 1, ptr %18, align 4
  br label %69

69:                                               ; preds = %68, %67
  call void @llvm.lifetime.end.p0(i64 8, ptr %16) #4
  %70 = load i32, ptr %8, align 4
  ret i32 %70
}