; Function Attrs: nounwind uwtable
define range(i32 0, 2) i32 @exr_compress_buffer(ptr noundef readonly %0, i32 noundef %1, ptr noundef %2, i64 noundef %3, ptr noundef %4, i64 noundef %5, ptr noundef writeonly %6) local_unnamed_addr #0 {
  %8 = alloca i32, align 4
  store i32 %1, ptr %8, align 4, !tbaa !3
  %.not = icmp eq ptr %0, null
  br i1 %.not, label %.thread, label %9

9:                                                ; preds = %7
  %10 = getelementptr inbounds nuw i8, ptr %0, i64 88
  %11 = load ptr, ptr %10, align 8, !tbaa !7
  %12 = getelementptr inbounds nuw i8, ptr %0, i64 96
  %13 = load ptr, ptr %12, align 8, !tbaa !23
  br label %.thread

.thread:                                          ; preds = %7, %9
  %14 = phi ptr [ %11, %9 ], [ @internal_exr_alloc, %7 ]
  %15 = phi ptr [ %13, %9 ], [ @internal_exr_free, %7 ]
  tail call void @libdeflate_set_memory_allocator(ptr noundef %14, ptr noundef %15) #6
  %16 = icmp slt i32 %1, 0
  br i1 %16, label %17, label %21

17:                                               ; preds = %.thread
  call void @exr_get_default_zip_compression_level(ptr noundef nonnull %8) #6
  %18 = load i32, ptr %8, align 4, !tbaa !3
  %19 = icmp slt i32 %18, 0
  br i1 %19, label %20, label %21

20:                                               ; preds = %17
  store i32 4, ptr %8, align 4, !tbaa !3
  br label %21

21:                                               ; preds = %17, %20, %.thread
  %22 = phi i32 [ %18, %17 ], [ 4, %20 ], [ %1, %.thread ]
  %23 = call ptr @libdeflate_alloc_compressor(i32 noundef %22) #6
  %.not20 = icmp eq ptr %23, null
  br i1 %.not20, label %28, label %24

24:                                               ; preds = %21
  %25 = call i64 @libdeflate_zlib_compress(ptr noundef nonnull %23, ptr noundef %2, i64 noundef %3, ptr noundef %4, i64 noundef %5) #6
  call void @libdeflate_free_compressor(ptr noundef nonnull %23) #6
  %.not21 = icmp eq i64 %25, 0
  br i1 %.not21, label %28, label %26

26:                                               ; preds = %24
  %.not22 = icmp eq ptr %6, null
  br i1 %.not22, label %28, label %27

27:                                               ; preds = %26
  store i64 %25, ptr %6, align 8, !tbaa !24
  br label %28

28:                                               ; preds = %21, %27, %26, %24
  %.1 = phi i32 [ 0, %27 ], [ 0, %26 ], [ 1, %24 ], [ 1, %21 ]
  ret i32 %.1
}